; Function Attrs: mustprogress uwtable
define void @_ZN3gmx14DataFileFinder4Impl14getDefaultPathB5cxx11Ev(ptr dead_on_unwind noalias writable sret(%"class.std::filesystem::__cxx11::path") align 8 %0) local_unnamed_addr #0 align 2 personality ptr @__gxx_personality_v0 {
  %2 = alloca %"struct.gmx::InstallationPrefixInfo", align 8
  %3 = alloca %"class.std::filesystem::__cxx11::path", align 8
  %4 = tail call noundef nonnull align 8 dereferenceable(8) ptr @_ZN3gmx17getProgramContextEv()
  %5 = load ptr, ptr %4, align 8
  %6 = getelementptr inbounds i8, ptr %5, i64 24
  %7 = load ptr, ptr %6, align 8
  call void %7(ptr dead_on_unwind nonnull writable sret(%"struct.gmx::InstallationPrefixInfo") align 8 %2, ptr noundef nonnull align 8 dereferenceable(8) %4)
  %8 = call noundef zeroext i1 @_ZNKSt7__cxx1112basic_stringIcSt11char_traitsIcESaIcEE5emptyEv(ptr noundef nonnull align 8 dereferenceable(32) %2) #17
  br i1 %8, label %28, label %9

9:                                                ; preds = %1
  %10 = getelementptr inbounds i8, ptr %2, i64 40
  %11 = load i8, ptr %10, align 8
  %12 = trunc i8 %11 to i1
  %13 = select i1 %12, ptr @.str, ptr @.str.1
  invoke void @_ZNSt7__cxx1112basic_stringIcSt11char_traitsIcESaIcEEC1ERKS4_(ptr noundef nonnull align 8 dereferenceable(32) %3, ptr noundef nonnull align 8 dereferenceable(32) %2)
          to label %.noexc unwind label %24

.noexc:                                           ; preds = %9
  %14 = getelementptr inbounds i8, ptr %3, i64 32
  %15 = getelementptr inbounds i8, ptr %2, i64 32
  invoke void @_ZNSt10filesystem7__cxx114path5_ListC1ERKS2_(ptr noundef nonnull align 8 dereferenceable(8) %14, ptr noundef nonnull align 8 dereferenceable(8) %15)
          to label %_ZNSt10filesystem7__cxx114pathC2ERKS1_.exit unwind label %16

16:                                               ; preds = %.noexc
  %17 = landingpad { ptr, i32 }
          cleanup
  call void @_ZNSt7__cxx1112basic_stringIcSt11char_traitsIcESaIcEED1Ev(ptr noundef nonnull align 8 dereferenceable(32) %3) #17
  br label %.body

_ZNSt10filesystem7__cxx114pathC2ERKS1_.exit:      ; preds = %.noexc
  %18 = select i1 %12, i64 5, i64 13
  invoke void @_ZNSt10filesystem7__cxx114path9_M_appendESt17basic_string_viewIcSt11char_traitsIcEE(ptr noundef nonnull align 8 dereferenceable(40) %3, i64 %18, ptr nonnull %13)
          to label %_ZNSt10filesystem7__cxx114path6appendIPKcEERNSt9enable_ifIX13__is_path_srcIT_EES1_E4typeERKS6_.exit unwind label %26

_ZNSt10filesystem7__cxx114path6appendIPKcEERNSt9enable_ifIX13__is_path_srcIT_EES1_E4typeERKS6_.exit: ; preds = %_ZNSt10filesystem7__cxx114pathC2ERKS1_.exit
  invoke void @_ZNSt10filesystem7__cxx114path9_M_appendESt17basic_string_viewIcSt11char_traitsIcEE(ptr noundef nonnull align 8 dereferenceable(40) %3, i64 3, ptr nonnull @.str.2)
          to label %_ZNSt10filesystem7__cxx114path6appendIA4_cEERNSt9enable_ifIX13__is_path_srcIT_EES1_E4typeERKS5_.exit unwind label %26

_ZNSt10filesystem7__cxx114path6appendIA4_cEERNSt9enable_ifIX13__is_path_srcIT_EES1_E4typeERKS5_.exit: ; preds = %_ZNSt10filesystem7__cxx114path6appendIPKcEERNSt9enable_ifIX13__is_path_srcIT_EES1_E4typeERKS6_.exit
  invoke void @_ZNSt7__cxx1112basic_stringIcSt11char_traitsIcESaIcEEC1ERKS4_(ptr noundef nonnull align 8 dereferenceable(32) %0, ptr noundef nonnull align 8 dereferenceable(32) %3)
          to label %.noexc5 unwind label %26

.noexc5:                                          ; preds = %_ZNSt10filesystem7__cxx114path6appendIA4_cEERNSt9enable_ifIX13__is_path_srcIT_EES1_E4typeERKS5_.exit
  %19 = getelementptr inbounds i8, ptr %0, i64 32
  invoke void @_ZNSt10filesystem7__cxx114path5_ListC1ERKS2_(ptr noundef nonnull align 8 dereferenceable(8) %19, ptr noundef nonnull align 8 dereferenceable(8) %14)
          to label %_ZNSt10filesystem7__cxx114pathC2ERKS1_.exit8 unwind label %20

20:                                               ; preds = %.noexc5
  %21 = landingpad { ptr, i32 }
          cleanup
  call void @_ZNSt7__cxx1112basic_stringIcSt11char_traitsIcESaIcEED1Ev(ptr noundef nonnull align 8 dereferenceable(32) %0) #17
  br label %.body6

_ZNSt10filesystem7__cxx114pathC2ERKS1_.exit8:     ; preds = %.noexc5
  %22 = load ptr, ptr %14, align 8
  %.not.i.i.i = icmp eq ptr %22, null
  br i1 %.not.i.i.i, label %_ZNSt10filesystem7__cxx114pathD2Ev.exit, label %23

23:                                               ; preds = %_ZNSt10filesystem7__cxx114pathC2ERKS1_.exit8
  call void @_ZNKSt10filesystem7__cxx114path5_List13_Impl_deleterclEPNS2_5_ImplE(ptr noundef nonnull align 1 dereferenceable(1) %14, ptr noundef nonnull %22) #17
  br label %_ZNSt10filesystem7__cxx114pathD2Ev.exit

_ZNSt10filesystem7__cxx114pathD2Ev.exit:          ; preds = %_ZNSt10filesystem7__cxx114pathC2ERKS1_.exit8, %23
  store ptr null, ptr %14, align 8
  call void @_ZNSt7__cxx1112basic_stringIcSt11char_traitsIcESaIcEED1Ev(ptr noundef nonnull align 8 dereferenceable(32) %3) #17
  br label %_ZNSt10filesystem7__cxx114pathC2Ev.exit

24:                                               ; preds = %9
  %25 = landingpad { ptr, i32 }
          cleanup
  br label %.body

26:                                               ; preds = %_ZNSt10filesystem7__cxx114path6appendIA4_cEERNSt9enable_ifIX13__is_path_srcIT_EES1_E4typeERKS5_.exit, %_ZNSt10filesystem7__cxx114path6appendIPKcEERNSt9enable_ifIX13__is_path_srcIT_EES1_E4typeERKS6_.exit, %_ZNSt10filesystem7__cxx114pathC2ERKS1_.exit
  %27 = landingpad { ptr, i32 }
          cleanup
  br label %.body6

.body6:                                           ; preds = %20, %26
  %eh.lpad-body7 = phi { ptr, i32 } [ %27, %26 ], [ %21, %20 ]
  call void @_ZNSt10filesystem7__cxx114pathD2Ev(ptr noundef nonnull align 8 dereferenceable(40) %3) #17
  br label %.body

28:                                               ; preds = %1
  call void @_ZNSt7__cxx1112basic_stringIcSt11char_traitsIcESaIcEEC1Ev(ptr noundef nonnull align 8 dereferenceable(32) %0) #17
  %29 = getelementptr inbounds i8, ptr %0, i64 32
  invoke void @_ZNSt10filesystem7__cxx114path5_ListC1Ev(ptr noundef nonnull align 8 dereferenceable(8) %29)
          to label %_ZNSt10filesystem7__cxx114pathC2Ev.exit unwind label %30

30:                                               ; preds = %28
  %31 = landingpad { ptr, i32 }
          catch ptr null
  %32 = extractvalue { ptr, i32 } %31, 0
  call void @__clang_call_terminate(ptr %32) #18
  unreachable

_ZNSt10filesystem7__cxx114pathC2Ev.exit:          ; preds = %28, %_ZNSt10filesystem7__cxx114pathD2Ev.exit
  %33 = getelementptr inbounds i8, ptr %2, i64 32
  %34 = load ptr, ptr %33, align 8
  %.not.i.i.i.i = icmp eq ptr %34, null
  br i1 %.not.i.i.i.i, label %_ZN3gmx22InstallationPrefixInfoD2Ev.exit, label %35

35:                                               ; preds = %_ZNSt10filesystem7__cxx114pathC2Ev.exit
  call void @_ZNKSt10filesystem7__cxx114path5_List13_Impl_deleterclEPNS2_5_ImplE(ptr noundef nonnull align 1 dereferenceable(1) %33, ptr noundef nonnull %34) #17
  br label %_ZN3gmx22InstallationPrefixInfoD2Ev.exit

_ZN3gmx22InstallationPrefixInfoD2Ev.exit:         ; preds = %_ZNSt10filesystem7__cxx114pathC2Ev.exit, %35
  store ptr null, ptr %33, align 8
  call void @_ZNSt7__cxx1112basic_stringIcSt11char_traitsIcESaIcEED1Ev(ptr noundef nonnull align 8 dereferenceable(32) %2) #17
  ret void

.body:                                            ; preds = %24, %16, %.body6
  %.pn = phi { ptr, i32 } [ %eh.lpad-body7, %.body6 ], [ %25, %24 ], [ %17, %16 ]
  call void @_ZN3gmx22InstallationPrefixInfoD2Ev(ptr noundef nonnull align 8 dereferenceable(41) %2) #17
  resume { ptr, i32 } %.pn
}